target datalayout = "e-m:e-p270:32:32-p271:32:32-p272:64:64-i64:64-i128:128-f80:128-n8:16:32:64-S128"
target triple = "x86_64-pc-linux-gnu"

%struct.UCHARBUF = type { ptr, ptr, ptr, i32, i32, i32, ptr, ptr, i8, i8 }

@.str = private unnamed_addr constant [3 x i8] c"rb\00", align 1
@stderr = external global ptr, align 8
@.str.2 = private unnamed_addr constant [2 x i8] c"-\00", align 1
@.str.3 = private unnamed_addr constant [61 x i8] c"###WARNING: No converter defined. Using codepage of system.\0A\00", align 1
@.str.4 = private unnamed_addr constant [34 x i8] c"Could not open codepage [%s]: %s\0A\00", align 1

; Function Attrs: inlinehint mustprogress nounwind uwtable
define internal noundef signext i8 @_ZL9U_SUCCESS10UErrorCode(i32 noundef %0) #4 {
  %2 = alloca i32, align 4
  store i32 %0, ptr %2, align 4, !tbaa !24
  %3 = load i32, ptr %2, align 4, !tbaa !24
  %4 = icmp sle i32 %3, 0
  %5 = zext i1 %4 to i8
  ret i8 %5
}

; Function Attrs: inlinehint mustprogress nounwind uwtable
define internal noundef signext i8 @_ZL9U_FAILURE10UErrorCode(i32 noundef %0) #4 {
  %2 = alloca i32, align 4
  store i32 %0, ptr %2, align 4, !tbaa !24
  %3 = load i32, ptr %2, align 4, !tbaa !24
  %4 = icmp sgt i32 %3, 0
  %5 = zext i1 %4 to i8
  ret i8 %5
}

; Function Attrs: mustprogress uwtable
define ptr @ucbuf_open(ptr noundef %0, ptr noundef %1, i8 noundef signext %2, i8 noundef signext %3, ptr noundef %4) #0 {
  %6 = alloca ptr, align 8
  %7 = alloca ptr, align 8
  %8 = alloca ptr, align 8
  %9 = alloca i8, align 1
  %10 = alloca i8, align 1
  %11 = alloca ptr, align 8
  %12 = alloca ptr, align 8
  %13 = alloca i32, align 4
  %14 = alloca ptr, align 8
  %15 = alloca i32, align 4
  %16 = alloca ptr, align 8
  store ptr %0, ptr %7, align 8, !tbaa !18
  store ptr %1, ptr %8, align 8, !tbaa !8
  store i8 %2, ptr %9, align 1, !tbaa !39
  store i8 %3, ptr %10, align 1, !tbaa !39
  store ptr %4, ptr %11, align 8, !tbaa !15
  call void @llvm.lifetime.start.p0(i64 8, ptr %12) #10
  store ptr null, ptr %12, align 8, !tbaa !3
  call void @llvm.lifetime.start.p0(i64 4, ptr %13) #10
  store i32 0, ptr %13, align 4, !tbaa !16
  call void @llvm.lifetime.start.p0(i64 8, ptr %14) #10
  %17 = load ptr, ptr %11, align 8, !tbaa !15
  %18 = icmp eq ptr %17, null
  br i1 %18, label %24, label %19

19:                                               ; preds = %5
  %20 = load ptr, ptr %11, align 8, !tbaa !15
  %21 = load i32, ptr %20, align 4, !tbaa !24
  %22 = call noundef signext i8 @_ZL9U_FAILURE10UErrorCode(i32 noundef %21)
  %23 = icmp ne i8 %22, 0
  br i1 %23, label %24, label %25

24:                                               ; preds = %19, %5
  store ptr null, ptr %6, align 8
  store i32 1, ptr %15, align 4
  br label %223

25:                                               ; preds = %19
  %26 = load ptr, ptr %8, align 8, !tbaa !8
  %27 = icmp eq ptr %26, null
  br i1 %27, label %31, label %28

28:                                               ; preds = %25
  %29 = load ptr, ptr %7, align 8, !tbaa !18
  %30 = icmp eq ptr %29, null
  br i1 %30, label %31, label %33

31:                                               ; preds = %28, %25
  %32 = load ptr, ptr %11, align 8, !tbaa !15
  store i32 1, ptr %32, align 4, !tbaa !24
  store ptr null, ptr %6, align 8
  store i32 1, ptr %15, align 4
  br label %223

33:                                               ; preds = %28
  %34 = load ptr, ptr %7, align 8, !tbaa !18
  %35 = call i32 @strcmp(ptr noundef %34, ptr noundef @.str.2) #12
  %36 = icmp ne i32 %35, 0
  br i1 %36, label %39, label %37

37:                                               ; preds = %33
  %38 = call ptr @T_FileStream_stdin()
  store ptr %38, ptr %12, align 8, !tbaa !3
  br label %42

39:                                               ; preds = %33
  %40 = load ptr, ptr %7, align 8, !tbaa !18
  %41 = call ptr @T_FileStream_open(ptr noundef %40, ptr noundef @.str)
  store ptr %41, ptr %12, align 8, !tbaa !3
  br label %42

42:                                               ; preds = %39, %37
  %43 = load ptr, ptr %12, align 8, !tbaa !3
  %44 = icmp ne ptr %43, null
  br i1 %44, label %45, label %221

45:                                               ; preds = %42
  call void @llvm.lifetime.start.p0(i64 8, ptr %16) #10
  %46 = call noalias ptr @uprv_malloc_77(i64 noundef 64) #11
  store ptr %46, ptr %16, align 8, !tbaa !28
  %47 = load ptr, ptr %12, align 8, !tbaa !3
  %48 = call i32 @T_FileStream_size(ptr noundef %47)
  store i32 %48, ptr %13, align 4, !tbaa !16
  %49 = load ptr, ptr %16, align 8, !tbaa !28
  %50 = icmp eq ptr %49, null
  br i1 %50, label %51, label %54

51:                                               ; preds = %45
  %52 = load ptr, ptr %11, align 8, !tbaa !15
  store i32 7, ptr %52, align 4, !tbaa !24
  %53 = load ptr, ptr %12, align 8, !tbaa !3
  call void @T_FileStream_close(ptr noundef %53)
  store ptr null, ptr %6, align 8
  store i32 1, ptr %15, align 4
  br label %220

54:                                               ; preds = %45
  %55 = load ptr, ptr %12, align 8, !tbaa !3
  %56 = load ptr, ptr %16, align 8, !tbaa !28
  %57 = getelementptr inbounds nuw %struct.UCHARBUF, ptr %56, i32 0, i32 6
  store ptr %55, ptr %57, align 8, !tbaa !36
  %58 = load ptr, ptr %16, align 8, !tbaa !28
  %59 = getelementptr inbounds nuw %struct.UCHARBUF, ptr %58, i32 0, i32 7
  store ptr null, ptr %59, align 8, !tbaa !37
  %60 = load i8, ptr %9, align 1, !tbaa !39
  %61 = load ptr, ptr %16, align 8, !tbaa !28
  %62 = getelementptr inbounds nuw %struct.UCHARBUF, ptr %61, i32 0, i32 8
  store i8 %60, ptr %62, align 8, !tbaa !40
  %63 = load i8, ptr %10, align 1, !tbaa !39
  %64 = load ptr, ptr %16, align 8, !tbaa !28
  %65 = getelementptr inbounds nuw %struct.UCHARBUF, ptr %64, i32 0, i32 9
  store i8 %63, ptr %65, align 1, !tbaa !35
  %66 = load ptr, ptr %16, align 8, !tbaa !28
  %67 = getelementptr inbounds nuw %struct.UCHARBUF, ptr %66, i32 0, i32 5
  store i32 0, ptr %67, align 8, !tbaa !43
  %68 = load ptr, ptr %8, align 8, !tbaa !8
  %69 = load ptr, ptr %68, align 8, !tbaa !18
  %70 = icmp eq ptr %69, null
  br i1 %70, label %77, label %71

71:                                               ; preds = %54
  %72 = load ptr, ptr %8, align 8, !tbaa !8
  %73 = load ptr, ptr %72, align 8, !tbaa !18
  %74 = load i8, ptr %73, align 1, !tbaa !39
  %75 = sext i8 %74 to i32
  %76 = icmp eq i32 %75, 0
  br i1 %76, label %77, label %86

77:                                               ; preds = %71, %54
  %78 = load ptr, ptr %12, align 8, !tbaa !3
  %79 = load ptr, ptr %8, align 8, !tbaa !8
  %80 = load ptr, ptr %16, align 8, !tbaa !28
  %81 = getelementptr inbounds nuw %struct.UCHARBUF, ptr %80, i32 0, i32 7
  %82 = load ptr, ptr %16, align 8, !tbaa !28
  %83 = getelementptr inbounds nuw %struct.UCHARBUF, ptr %82, i32 0, i32 5
  %84 = load ptr, ptr %11, align 8, !tbaa !15
  %85 = call signext i8 @ucbuf_autodetect_fs(ptr noundef %78, ptr noundef %79, ptr noundef %81, ptr noundef %83, ptr noundef %84)
  br label %100

86:                                               ; preds = %71
  %87 = load ptr, ptr %8, align 8, !tbaa !8
  %88 = load ptr, ptr %87, align 8, !tbaa !18
  %89 = call noundef signext i8 @_ZL15ucbuf_isCPKnownPKc(ptr noundef %88)
  %90 = icmp ne i8 %89, 0
  br i1 %90, label %91, label %99

91:                                               ; preds = %86
  %92 = load ptr, ptr %12, align 8, !tbaa !3
  %93 = load ptr, ptr %16, align 8, !tbaa !28
  %94 = getelementptr inbounds nuw %struct.UCHARBUF, ptr %93, i32 0, i32 7
  %95 = load ptr, ptr %16, align 8, !tbaa !28
  %96 = getelementptr inbounds nuw %struct.UCHARBUF, ptr %95, i32 0, i32 5
  %97 = load ptr, ptr %11, align 8, !tbaa !15
  %98 = call signext i8 @ucbuf_autodetect_fs(ptr noundef %92, ptr noundef %14, ptr noundef %94, ptr noundef %96, ptr noundef %97)
  br label %99

99:                                               ; preds = %91, %86
  br label %100

100:                                              ; preds = %99, %77
  %101 = load ptr, ptr %11, align 8, !tbaa !15
  %102 = load i32, ptr %101, align 4, !tbaa !24
  %103 = call noundef signext i8 @_ZL9U_SUCCESS10UErrorCode(i32 noundef %102)
  %104 = icmp ne i8 %103, 0
  br i1 %104, label %105, label %117

105:                                              ; preds = %100
  %106 = load ptr, ptr %16, align 8, !tbaa !28
  %107 = getelementptr inbounds nuw %struct.UCHARBUF, ptr %106, i32 0, i32 7
  %108 = load ptr, ptr %107, align 8, !tbaa !37
  %109 = icmp eq ptr %108, null
  br i1 %109, label %110, label %117

110:                                              ; preds = %105
  %111 = load ptr, ptr %8, align 8, !tbaa !8
  %112 = load ptr, ptr %111, align 8, !tbaa !18
  %113 = load ptr, ptr %11, align 8, !tbaa !15
  %114 = call ptr @ucnv_open_77(ptr noundef %112, ptr noundef %113)
  %115 = load ptr, ptr %16, align 8, !tbaa !28
  %116 = getelementptr inbounds nuw %struct.UCHARBUF, ptr %115, i32 0, i32 7
  store ptr %114, ptr %116, align 8, !tbaa !37
  br label %117

117:                                              ; preds = %110, %105, %100
  %118 = load ptr, ptr %11, align 8, !tbaa !15
  %119 = load i32, ptr %118, align 4, !tbaa !24
  %120 = call noundef signext i8 @_ZL9U_FAILURE10UErrorCode(i32 noundef %119)
  %121 = icmp ne i8 %120, 0
  br i1 %121, label %122, label %128

122:                                              ; preds = %117
  %123 = load ptr, ptr %16, align 8, !tbaa !28
  %124 = getelementptr inbounds nuw %struct.UCHARBUF, ptr %123, i32 0, i32 7
  %125 = load ptr, ptr %124, align 8, !tbaa !37
  call void @ucnv_close_77(ptr noundef %125)
  %126 = load ptr, ptr %16, align 8, !tbaa !28
  call void @uprv_free_77(ptr noundef %126)
  %127 = load ptr, ptr %12, align 8, !tbaa !3
  call void @T_FileStream_close(ptr noundef %127)
  store ptr null, ptr %6, align 8
  store i32 1, ptr %15, align 4
  br label %220

128:                                              ; preds = %117
  %129 = load ptr, ptr %16, align 8, !tbaa !28
  %130 = getelementptr inbounds nuw %struct.UCHARBUF, ptr %129, i32 0, i32 7
  %131 = load ptr, ptr %130, align 8, !tbaa !37
  %132 = icmp eq ptr %131, null
  br i1 %132, label %133, label %142

133:                                              ; preds = %128
  %134 = load ptr, ptr %16, align 8, !tbaa !28
  %135 = getelementptr inbounds nuw %struct.UCHARBUF, ptr %134, i32 0, i32 8
  %136 = load i8, ptr %135, align 8, !tbaa !40
  %137 = sext i8 %136 to i32
  %138 = icmp eq i32 %137, 1
  br i1 %138, label %139, label %142

139:                                              ; preds = %133
  %140 = load ptr, ptr @stderr, align 8, !tbaa !41
  %141 = call i32 (ptr, ptr, ...) @fprintf(ptr noundef %140, ptr noundef @.str.3) #10
  br label %142

142:                                              ; preds = %139, %133, %128
  %143 = load i32, ptr %13, align 4, !tbaa !16
  %144 = load ptr, ptr %16, align 8, !tbaa !28
  %145 = getelementptr inbounds nuw %struct.UCHARBUF, ptr %144, i32 0, i32 5
  %146 = load i32, ptr %145, align 8, !tbaa !43
  %147 = sub nsw i32 %143, %146
  %148 = load ptr, ptr %16, align 8, !tbaa !28
  %149 = getelementptr inbounds nuw %struct.UCHARBUF, ptr %148, i32 0, i32 4
  store i32 %147, ptr %149, align 4, !tbaa !33
  %150 = load ptr, ptr %16, align 8, !tbaa !28
  %151 = getelementptr inbounds nuw %struct.UCHARBUF, ptr %150, i32 0, i32 9
  %152 = load i8, ptr %151, align 1, !tbaa !35
  %153 = icmp ne i8 %152, 0
  br i1 %153, label %154, label %157

154:                                              ; preds = %142
  %155 = load ptr, ptr %16, align 8, !tbaa !28
  %156 = getelementptr inbounds nuw %struct.UCHARBUF, ptr %155, i32 0, i32 3
  store i32 1500, ptr %156, align 8, !tbaa !38
  br label %168

157:                                              ; preds = %142
  %158 = load ptr, ptr %16, align 8, !tbaa !28
  %159 = getelementptr inbounds nuw %struct.UCHARBUF, ptr %158, i32 0, i32 4
  %160 = load i32, ptr %159, align 4, !tbaa !33
  %161 = load ptr, ptr %16, align 8, !tbaa !28
  %162 = getelementptr inbounds nuw %struct.UCHARBUF, ptr %161, i32 0, i32 5
  %163 = load i32, ptr %162, align 8, !tbaa !43
  %164 = add nsw i32 %160, %163
  %165 = add nsw i32 %164, 1
  %166 = load ptr, ptr %16, align 8, !tbaa !28
  %167 = getelementptr inbounds nuw %struct.UCHARBUF, ptr %166, i32 0, i32 3
  store i32 %165, ptr %167, align 8, !tbaa !38
  br label %168

168:                                              ; preds = %157, %154
  %169 = load ptr, ptr %16, align 8, !tbaa !28
  %170 = getelementptr inbounds nuw %struct.UCHARBUF, ptr %169, i32 0, i32 3
  %171 = load i32, ptr %170, align 8, !tbaa !38
  %172 = mul nsw i32 2, %171
  %173 = sext i32 %172 to i64
  %174 = call noalias ptr @uprv_malloc_77(i64 noundef %173) #11
  %175 = load ptr, ptr %16, align 8, !tbaa !28
  %176 = getelementptr inbounds nuw %struct.UCHARBUF, ptr %175, i32 0, i32 0
  store ptr %174, ptr %176, align 8, !tbaa !34
  %177 = load ptr, ptr %16, align 8, !tbaa !28
  %178 = getelementptr inbounds nuw %struct.UCHARBUF, ptr %177, i32 0, i32 0
  %179 = load ptr, ptr %178, align 8, !tbaa !34
  %180 = icmp eq ptr %179, null
  br i1 %180, label %181, label %184

181:                                              ; preds = %168
  %182 = load ptr, ptr %11, align 8, !tbaa !15
  store i32 7, ptr %182, align 4, !tbaa !24
  %183 = load ptr, ptr %16, align 8, !tbaa !28
  call void @ucbuf_close(ptr noundef %183)
  store ptr null, ptr %6, align 8
  store i32 1, ptr %15, align 4
  br label %220

184:                                              ; preds = %168
  %185 = load ptr, ptr %16, align 8, !tbaa !28
  %186 = getelementptr inbounds nuw %struct.UCHARBUF, ptr %185, i32 0, i32 0
  %187 = load ptr, ptr %186, align 8, !tbaa !34
  %188 = load ptr, ptr %16, align 8, !tbaa !28
  %189 = getelementptr inbounds nuw %struct.UCHARBUF, ptr %188, i32 0, i32 1
  store ptr %187, ptr %189, align 8, !tbaa !30
  %190 = load ptr, ptr %16, align 8, !tbaa !28
  %191 = getelementptr inbounds nuw %struct.UCHARBUF, ptr %190, i32 0, i32 0
  %192 = load ptr, ptr %191, align 8, !tbaa !34
  %193 = load ptr, ptr %16, align 8, !tbaa !28
  %194 = getelementptr inbounds nuw %struct.UCHARBUF, ptr %193, i32 0, i32 2
  store ptr %192, ptr %194, align 8, !tbaa !32
  %195 = load ptr, ptr %11, align 8, !tbaa !15
  %196 = load i32, ptr %195, align 4, !tbaa !24
  %197 = call noundef signext i8 @_ZL9U_FAILURE10UErrorCode(i32 noundef %196)
  %198 = icmp ne i8 %197, 0
  br i1 %198, label %199, label %208

199:                                              ; preds = %184
  %200 = load ptr, ptr @stderr, align 8, !tbaa !41
  %201 = load ptr, ptr %8, align 8, !tbaa !8
  %202 = load ptr, ptr %201, align 8, !tbaa !18
  %203 = load ptr, ptr %11, align 8, !tbaa !15
  %204 = load i32, ptr %203, align 4, !tbaa !24
  %205 = call ptr @u_errorName_77(i32 noundef %204)
  %206 = call i32 (ptr, ptr, ...) @fprintf(ptr noundef %200, ptr noundef @.str.4, ptr noundef %202, ptr noundef %205) #10
  %207 = load ptr, ptr %16, align 8, !tbaa !28
  call void @ucbuf_close(ptr noundef %207)
  store ptr null, ptr %6, align 8
  store i32 1, ptr %15, align 4
  br label %220

208:                                              ; preds = %184
  %209 = load ptr, ptr %16, align 8, !tbaa !28
  %210 = load ptr, ptr %11, align 8, !tbaa !15
  %211 = call noundef ptr @_ZL15ucbuf_fillucbufP8UCHARBUFP10UErrorCode(ptr noundef %209, ptr noundef %210)
  %212 = load ptr, ptr %11, align 8, !tbaa !15
  %213 = load i32, ptr %212, align 4, !tbaa !24
  %214 = call noundef signext i8 @_ZL9U_FAILURE10UErrorCode(i32 noundef %213)
  %215 = icmp ne i8 %214, 0
  br i1 %215, label %216, label %218

216:                                              ; preds = %208
  %217 = load ptr, ptr %16, align 8, !tbaa !28
  call void @ucbuf_close(ptr noundef %217)
  store ptr null, ptr %6, align 8
  store i32 1, ptr %15, align 4
  br label %220

218:                                              ; preds = %208
  %219 = load ptr, ptr %16, align 8, !tbaa !28
  store ptr %219, ptr %6, align 8
  store i32 1, ptr %15, align 4
  br label %220

220:                                              ; preds = %218, %216, %199, %181, %122, %51
  call void @llvm.lifetime.end.p0(i64 8, ptr %16) #10
  br label %223

221:                                              ; preds = %42
  %222 = load ptr, ptr %11, align 8, !tbaa !15
  store i32 4, ptr %222, align 4, !tbaa !24
  store ptr null, ptr %6, align 8
  store i32 1, ptr %15, align 4
  br label %223

223:                                              ; preds = %221, %220, %31, %24
  call void @llvm.lifetime.end.p0(i64 8, ptr %14) #10
  call void @llvm.lifetime.end.p0(i64 4, ptr %13) #10
  call void @llvm.lifetime.end.p0(i64 8, ptr %12) #10
  %224 = load ptr, ptr %6, align 8
  ret ptr %224
}