; Function Attrs: mustprogress uwtable
define noundef ptr @ucbuf_open(ptr noundef %0, ptr noundef %1, i8 noundef signext %2, i8 noundef signext %3, ptr noundef %4) local_unnamed_addr #0 {
  %6 = alloca ptr, align 8
  call void @llvm.lifetime.start.p0(i64 8, ptr nonnull %6) #15
  %7 = icmp eq ptr %4, null
  br i1 %7, label %91, label %8

8:                                                ; preds = %5
  %9 = load i32, ptr %4, align 4, !tbaa !14
  %10 = icmp slt i32 %9, 1
  br i1 %10, label %11, label %91

11:                                               ; preds = %8
  %12 = icmp eq ptr %1, null
  %13 = icmp eq ptr %0, null
  %or.cond = or i1 %13, %12
  br i1 %or.cond, label %14, label %sub_0

14:                                               ; preds = %11
  store i32 1, ptr %4, align 4, !tbaa !14
  br label %91

sub_0:                                            ; preds = %11
  %15 = load i8, ptr %0, align 1
  %.not = icmp eq i8 %15, 45
  br i1 %.not, label %.tail, label %.tail.thread

.tail:                                            ; preds = %sub_0
  %16 = getelementptr inbounds nuw i8, ptr %0, i64 1
  %17 = load i8, ptr %16, align 1
  %18 = icmp eq i8 %17, 0
  br i1 %18, label %19, label %.tail.thread

19:                                               ; preds = %.tail
  %20 = tail call ptr @T_FileStream_stdin()
  br label %22

.tail.thread:                                     ; preds = %sub_0, %.tail
  %21 = tail call ptr @T_FileStream_open(ptr noundef nonnull %0, ptr noundef nonnull @.str)
  br label %22

22:                                               ; preds = %.tail.thread, %19
  %.071 = phi ptr [ %21, %.tail.thread ], [ %20, %19 ]
  %.not79 = icmp eq ptr %.071, null
  br i1 %.not79, label %90, label %23

23:                                               ; preds = %22
  %24 = tail call noalias dereferenceable_or_null(64) ptr @uprv_malloc_77(i64 noundef 64) #16
  %25 = tail call i32 @T_FileStream_size(ptr noundef nonnull %.071)
  %26 = icmp eq ptr %24, null
  br i1 %26, label %27, label %28

27:                                               ; preds = %23
  store i32 7, ptr %4, align 4, !tbaa !14
  tail call void @T_FileStream_close(ptr noundef nonnull %.071)
  br label %91

28:                                               ; preds = %23
  %29 = getelementptr inbounds nuw i8, ptr %24, i64 40
  store ptr %.071, ptr %29, align 8, !tbaa !25
  %30 = getelementptr inbounds nuw i8, ptr %24, i64 48
  store ptr null, ptr %30, align 8, !tbaa !26
  %31 = getelementptr inbounds nuw i8, ptr %24, i64 56
  store i8 %2, ptr %31, align 8, !tbaa !29
  %32 = getelementptr inbounds nuw i8, ptr %24, i64 57
  store i8 %3, ptr %32, align 1, !tbaa !24
  %33 = getelementptr inbounds nuw i8, ptr %24, i64 32
  store i32 0, ptr %33, align 8, !tbaa !32
  %34 = load ptr, ptr %1, align 8, !tbaa !3
  %35 = icmp eq ptr %34, null
  br i1 %35, label %39, label %36

36:                                               ; preds = %28
  %37 = load i8, ptr %34, align 1, !tbaa !28
  %38 = icmp eq i8 %37, 0
  br i1 %38, label %39, label %41

39:                                               ; preds = %36, %28
  %40 = tail call signext i8 @ucbuf_autodetect_fs(ptr noundef nonnull %.071, ptr noundef nonnull %1, ptr noundef nonnull %30, ptr noundef nonnull %33, ptr noundef nonnull %4)
  br label %45

41:                                               ; preds = %36
  %42 = tail call fastcc noundef signext i8 @_ZL15ucbuf_isCPKnownPKc(ptr noundef %34)
  %.not80 = icmp eq i8 %42, 0
  br i1 %.not80, label %45, label %43

43:                                               ; preds = %41
  %44 = call signext i8 @ucbuf_autodetect_fs(ptr noundef nonnull %.071, ptr noundef nonnull %6, ptr noundef nonnull %30, ptr noundef nonnull %33, ptr noundef nonnull %4)
  br label %45

45:                                               ; preds = %41, %43, %39
  %46 = load i32, ptr %4, align 4, !tbaa !14
  %47 = icmp sgt i32 %46, 0
  br i1 %47, label %.thread87, label %48

48:                                               ; preds = %45
  %49 = load ptr, ptr %30, align 8, !tbaa !26
  %50 = icmp eq ptr %49, null
  br i1 %50, label %51, label %.thread88

51:                                               ; preds = %48
  %52 = load ptr, ptr %1, align 8, !tbaa !3
  %53 = tail call ptr @ucnv_open_77(ptr noundef %52, ptr noundef nonnull %4)
  store ptr %53, ptr %30, align 8, !tbaa !26
  %.pre = load i32, ptr %4, align 4, !tbaa !14
  %54 = icmp slt i32 %.pre, 1
  br i1 %54, label %56, label %.thread87

.thread87:                                        ; preds = %45, %51
  %55 = load ptr, ptr %30, align 8, !tbaa !26
  tail call void @ucnv_close_77(ptr noundef %55)
  tail call void @uprv_free_77(ptr noundef nonnull %24)
  tail call void @T_FileStream_close(ptr noundef nonnull %.071)
  br label %91

56:                                               ; preds = %51
  %57 = icmp eq ptr %53, null
  br i1 %57, label %58, label %.thread88

58:                                               ; preds = %56
  %59 = load i8, ptr %31, align 8, !tbaa !29
  %60 = icmp eq i8 %59, 1
  br i1 %60, label %61, label %.thread88

61:                                               ; preds = %58
  %62 = load ptr, ptr @stderr, align 8, !tbaa !30
  %63 = tail call i64 @fwrite(ptr nonnull @.str.3, i64 60, i64 1, ptr %62) #18
  br label %.thread88

.thread88:                                        ; preds = %48, %61, %58, %56
  %64 = load i32, ptr %33, align 8, !tbaa !32
  %65 = sub nsw i32 %25, %64
  %66 = getelementptr inbounds nuw i8, ptr %24, i64 28
  store i32 %65, ptr %66, align 4, !tbaa !20
  %67 = load i8, ptr %32, align 1, !tbaa !24
  %.not83 = icmp eq i8 %67, 0
  %68 = add nsw i32 %25, 1
  %spec.select = select i1 %.not83, i32 %68, i32 1500
  %69 = getelementptr inbounds nuw i8, ptr %24, i64 24
  store i32 %spec.select, ptr %69, align 8, !tbaa !27
  %70 = shl nsw i32 %spec.select, 1
  %71 = sext i32 %70 to i64
  %72 = tail call noalias ptr @uprv_malloc_77(i64 noundef %71) #16
  store ptr %72, ptr %24, align 8, !tbaa !23
  %73 = icmp eq ptr %72, null
  br i1 %73, label %74, label %75

74:                                               ; preds = %.thread88
  store i32 7, ptr %4, align 4, !tbaa !14
  tail call void @ucbuf_close(ptr noundef nonnull %24)
  br label %91

75:                                               ; preds = %.thread88
  %76 = getelementptr inbounds nuw i8, ptr %24, i64 8
  store ptr %72, ptr %76, align 8, !tbaa !16
  %77 = getelementptr inbounds nuw i8, ptr %24, i64 16
  store ptr %72, ptr %77, align 8, !tbaa !19
  %78 = load i32, ptr %4, align 4, !tbaa !14
  %79 = icmp slt i32 %78, 1
  br i1 %79, label %85, label %80

80:                                               ; preds = %75
  %81 = load ptr, ptr @stderr, align 8, !tbaa !30
  %82 = load ptr, ptr %1, align 8, !tbaa !3
  %83 = tail call ptr @u_errorName_77(i32 noundef %78)
  %84 = tail call i32 (ptr, ptr, ...) @fprintf(ptr noundef %81, ptr noundef nonnull @.str.4, ptr noundef %82, ptr noundef %83) #17
  tail call void @ucbuf_close(ptr noundef nonnull %24)
  br label %91

85:                                               ; preds = %75
  %86 = tail call fastcc noundef ptr @_ZL15ucbuf_fillucbufP8UCHARBUFP10UErrorCode(ptr noundef nonnull %24, ptr noundef nonnull %4)
  %87 = load i32, ptr %4, align 4, !tbaa !14
  %88 = icmp slt i32 %87, 1
  br i1 %88, label %91, label %89

89:                                               ; preds = %85
  tail call void @ucbuf_close(ptr noundef nonnull %24)
  br label %91

90:                                               ; preds = %22
  store i32 4, ptr %4, align 4, !tbaa !14
  br label %91

91:                                               ; preds = %27, %.thread87, %74, %80, %89, %85, %5, %8, %90, %14
  %.0 = phi ptr [ null, %14 ], [ null, %90 ], [ null, %8 ], [ null, %5 ], [ null, %27 ], [ null, %.thread87 ], [ null, %74 ], [ null, %80 ], [ null, %89 ], [ %24, %85 ]
  call void @llvm.lifetime.end.p0(i64 8, ptr nonnull %6) #15
  ret ptr %.0
}